; Function Attrs: mustprogress uwtable
define hidden void @_ZN17algebraic_numbers7manager9get_upperERKNS_4anumER3mpq(ptr noundef nonnull readonly align 8 captures(none) dereferenceable(17) %0, ptr noundef nonnull readonly align 8 captures(none) dereferenceable(8) %1, ptr noundef nonnull align 8 dereferenceable(32) %2) local_unnamed_addr #3 align 2 personality ptr @__gxx_personality_v0 {
  %4 = alloca %class._scoped_numeral.15, align 8
  call void @llvm.lifetime.start.p0(i64 32, ptr nonnull %4) #29
  %5 = load ptr, ptr %0, align 8, !tbaa !12
  %6 = getelementptr inbounds nuw i8, ptr %5, i64 32
  store ptr %6, ptr %4, align 8, !tbaa !20
  %7 = getelementptr inbounds nuw i8, ptr %4, i64 8
  store i32 0, ptr %7, align 8, !tbaa !22
  %8 = getelementptr inbounds nuw i8, ptr %4, i64 12
  store i8 0, ptr %8, align 4
  %9 = getelementptr inbounds nuw i8, ptr %4, i64 16
  store ptr null, ptr %9, align 8, !tbaa !26
  %10 = getelementptr inbounds nuw i8, ptr %4, i64 24
  store i32 0, ptr %10, align 8, !tbaa !27
  %11 = load ptr, ptr %1, align 8, !tbaa !66
  %12 = ptrtoint ptr %11 to i64
  %13 = and i64 %12, -8
  %14 = inttoptr i64 %13 to ptr
  %15 = getelementptr inbounds nuw i8, ptr %14, i64 40
  %16 = getelementptr inbounds nuw i8, ptr %14, i64 44
  %17 = load i8, ptr %16, align 4
  %18 = and i8 %17, 1
  %19 = icmp eq i8 %18, 0
  br i1 %19, label %20, label %22

20:                                               ; preds = %3
  %21 = load i32, ptr %15, align 8, !tbaa !22
  store i32 %21, ptr %7, align 8, !tbaa !22
  store i8 0, ptr %8, align 4
  br label %24

22:                                               ; preds = %3
  %23 = load ptr, ptr %6, align 8, !tbaa !78
  invoke void @_ZN11mpz_managerILb0EE7big_setER3mpzRKS1_(ptr noundef nonnull align 8 dereferenceable(600) %23, ptr noundef nonnull align 8 dereferenceable(20) %7, ptr noundef nonnull align 8 dereferenceable(20) %15)
          to label %._crit_edge unwind label %36

._crit_edge:                                      ; preds = %22
  %.pre = load ptr, ptr %0, align 8, !tbaa !12
  br label %24

24:                                               ; preds = %._crit_edge, %20
  %25 = phi ptr [ %.pre, %._crit_edge ], [ %5, %20 ]
  %26 = getelementptr inbounds nuw i8, ptr %14, i64 56
  %27 = load i32, ptr %26, align 8, !tbaa !27
  store i32 %27, ptr %10, align 8, !tbaa !27
  %28 = getelementptr inbounds nuw i8, ptr %25, i64 24
  %29 = load ptr, ptr %28, align 8, !tbaa !65
  invoke void @_Z6to_mpqI11mpq_managerILb0EEEvRT_RK4mpbqR3mpq(ptr noundef nonnull align 8 dereferenceable(728) %29, ptr noundef nonnull align 8 dereferenceable(20) %7, ptr noundef nonnull align 8 dereferenceable(32) %2)
          to label %30 unwind label %36

30:                                               ; preds = %24
  %31 = load ptr, ptr %4, align 8, !tbaa !76
  %32 = load ptr, ptr %31, align 8, !tbaa !78
  invoke void @_ZN11mpz_managerILb0EE3delEPS0_R3mpz(ptr noundef nonnull align 8 dereferenceable(600) %32, ptr noundef nonnull align 8 dereferenceable(20) %7)
          to label %_ZN15_scoped_numeralI12mpbq_managerED2Ev.exit unwind label %33

33:                                               ; preds = %30
  %34 = landingpad { ptr, i32 }
          catch ptr null
  %35 = extractvalue { ptr, i32 } %34, 0
  call void @__clang_call_terminate(ptr %35) #30
  unreachable

_ZN15_scoped_numeralI12mpbq_managerED2Ev.exit:    ; preds = %30
  call void @llvm.lifetime.end.p0(i64 32, ptr nonnull %4) #29
  ret void

36:                                               ; preds = %22, %24
  %37 = landingpad { ptr, i32 }
          cleanup
  call void @_ZN15_scoped_numeralI12mpbq_managerED2Ev(ptr noundef nonnull align 8 dereferenceable(32) %4) #29
  call void @llvm.lifetime.end.p0(i64 32, ptr nonnull %4) #29
  resume { ptr, i32 } %37
}